target datalayout = "e-m:e-p270:32:32-p271:32:32-p272:64:64-i64:64-i128:128-f80:128-n8:16:32:64-S128"
target triple = "x86_64-pc-linux-gnu"

@.str.5 = private unnamed_addr constant [6 x i8] c"proxy\00", align 1

; Function Attrs: nounwind uwtable
define internal ptr @_weakref_proxy_impl(ptr noundef %0, ptr noundef %1, ptr noundef %2) #0 {
  %4 = alloca ptr, align 8
  %5 = alloca ptr, align 8
  %6 = alloca ptr, align 8
  store ptr %0, ptr %4, align 8, !tbaa !4
  store ptr %1, ptr %5, align 8, !tbaa !4
  store ptr %2, ptr %6, align 8, !tbaa !4
  %7 = load ptr, ptr %5, align 8, !tbaa !4
  %8 = load ptr, ptr %6, align 8, !tbaa !4
  %9 = call ptr @PyWeakref_NewProxy(ptr noundef %7, ptr noundef %8)
  ret ptr %9
}

; Function Attrs: nounwind uwtable
define internal ptr @_weakref_proxy(ptr noundef %0, ptr noundef %1, i64 noundef %2) #0 {
  %4 = alloca ptr, align 8
  %5 = alloca ptr, align 8
  %6 = alloca i64, align 8
  %7 = alloca ptr, align 8
  %8 = alloca ptr, align 8
  %9 = alloca ptr, align 8
  store ptr %0, ptr %4, align 8, !tbaa !4
  store ptr %1, ptr %5, align 8, !tbaa !11
  store i64 %2, ptr %6, align 8, !tbaa !9
  call void @llvm.lifetime.start.p0(i64 8, ptr %7) #6
  store ptr null, ptr %7, align 8, !tbaa !4
  call void @llvm.lifetime.start.p0(i64 8, ptr %8) #6
  call void @llvm.lifetime.start.p0(i64 8, ptr %9) #6
  store ptr null, ptr %9, align 8, !tbaa !4
  %10 = load i64, ptr %6, align 8, !tbaa !9
  %11 = icmp sle i64 1, %10
  br i1 %11, label %12, label %15

12:                                               ; preds = %3
  %13 = load i64, ptr %6, align 8, !tbaa !9
  %14 = icmp sle i64 %13, 2
  br i1 %14, label %20, label %15

15:                                               ; preds = %12, %3
  %16 = load i64, ptr %6, align 8, !tbaa !9
  %17 = call i32 @_PyArg_CheckPositional(ptr noundef @.str.5, i64 noundef %16, i64 noundef 1, i64 noundef 2)
  %18 = icmp ne i32 %17, 0
  br i1 %18, label %20, label %19

19:                                               ; preds = %15
  br label %36

20:                                               ; preds = %15, %12
  %21 = load ptr, ptr %5, align 8, !tbaa !11
  %22 = getelementptr ptr, ptr %21, i64 0
  %23 = load ptr, ptr %22, align 8, !tbaa !4
  store ptr %23, ptr %8, align 8, !tbaa !4
  %24 = load i64, ptr %6, align 8, !tbaa !9
  %25 = icmp slt i64 %24, 2
  br i1 %25, label %26, label %27

26:                                               ; preds = %20
  br label %31

27:                                               ; preds = %20
  %28 = load ptr, ptr %5, align 8, !tbaa !11
  %29 = getelementptr ptr, ptr %28, i64 1
  %30 = load ptr, ptr %29, align 8, !tbaa !4
  store ptr %30, ptr %9, align 8, !tbaa !4
  br label %31

31:                                               ; preds = %27, %26
  %32 = load ptr, ptr %4, align 8, !tbaa !4
  %33 = load ptr, ptr %8, align 8, !tbaa !4
  %34 = load ptr, ptr %9, align 8, !tbaa !4
  %35 = call ptr @_weakref_proxy_impl(ptr noundef %32, ptr noundef %33, ptr noundef %34)
  store ptr %35, ptr %7, align 8, !tbaa !4
  br label %36

36:                                               ; preds = %31, %19
  %37 = load ptr, ptr %7, align 8, !tbaa !4
  call void @llvm.lifetime.end.p0(i64 8, ptr %9) #6
  call void @llvm.lifetime.end.p0(i64 8, ptr %8) #6
  call void @llvm.lifetime.end.p0(i64 8, ptr %7) #6
  ret ptr %37
}