; Function Attrs: nounwind uwtable
define internal ptr @_weakref_proxy(ptr readnone captures(none) %0, ptr noundef readonly captures(none) %1, i64 noundef %2) #0 {
  %4 = add i64 %2, -1
  %or.cond = icmp ult i64 %4, 2
  br i1 %or.cond, label %7, label %5

5:                                                ; preds = %3
  %6 = tail call i32 @_PyArg_CheckPositional(ptr noundef nonnull @.str.5, i64 noundef %2, i64 noundef 1, i64 noundef 2) #3
  %.not = icmp eq i32 %6, 0
  br i1 %.not, label %15, label %7

7:                                                ; preds = %3, %5
  %8 = load ptr, ptr %1, align 8, !tbaa !4
  %9 = icmp slt i64 %2, 2
  br i1 %9, label %13, label %10

10:                                               ; preds = %7
  %11 = getelementptr i8, ptr %1, i64 8
  %12 = load ptr, ptr %11, align 8, !tbaa !4
  br label %13

13:                                               ; preds = %7, %10
  %.0 = phi ptr [ null, %7 ], [ %12, %10 ]
  %14 = tail call ptr @PyWeakref_NewProxy(ptr noundef %8, ptr noundef %.0) #3
  br label %15

15:                                               ; preds = %5, %13
  %.010 = phi ptr [ %14, %13 ], [ null, %5 ]
  ret ptr %.010
}